; Function Attrs: nounwind uwtable
define noalias noundef ptr @Io_ConvertNumsToSopMulti(ptr noundef readonly captures(none) %0, i32 noundef %1) local_unnamed_addr #0 {
  %3 = getelementptr i8, ptr %0, i64 4
  %.val30 = load i32, ptr %3, align 4
  %4 = tail call noalias dereferenceable_or_null(16) ptr @malloc(i64 noundef 16) #17
  %5 = add i32 %.val30, -1
  %or.cond.i = icmp ult i32 %5, 7
  %spec.store.select.i = select i1 %or.cond.i, i32 8, i32 %.val30
  %6 = getelementptr inbounds nuw i8, ptr %4, i64 4
  store i32 0, ptr %6, align 4
  store i32 %spec.store.select.i, ptr %4, align 8
  %.not.i = icmp eq i32 %spec.store.select.i, 0
  br i1 %.not.i, label %Vec_PtrAlloc.exit, label %7

7:                                                ; preds = %2
  %8 = sext i32 %spec.store.select.i to i64
  %9 = shl nsw i64 %8, 3
  %10 = tail call noalias ptr @malloc(i64 noundef %9) #17
  br label %Vec_PtrAlloc.exit

Vec_PtrAlloc.exit:                                ; preds = %2, %7
  %11 = phi ptr [ %10, %7 ], [ null, %2 ]
  %12 = getelementptr inbounds nuw i8, ptr %4, i64 8
  store ptr %11, ptr %12, align 8
  %13 = icmp sgt i32 %.val30, 0
  br i1 %13, label %.lr.ph38, label %.critedge

.lr.ph38:                                         ; preds = %Vec_PtrAlloc.exit
  %14 = getelementptr i8, ptr %0, i64 8
  %15 = add nsw i32 %1, 4
  %16 = sext i32 %15 to i64
  %17 = sext i32 %1 to i64
  br label %18

18:                                               ; preds = %.lr.ph38, %Vec_PtrPush.exit
  %indvars.iv40 = phi i64 [ 0, %.lr.ph38 ], [ %indvars.iv.next41, %Vec_PtrPush.exit ]
  %.val31 = load ptr, ptr %14, align 8
  %19 = getelementptr inbounds nuw %struct.Vec_Int_t_, ptr %.val31, i64 %indvars.iv40
  %20 = tail call noalias ptr @malloc(i64 noundef %16) #17
  tail call void @llvm.memset.p0.i64(ptr align 1 %20, i8 45, i64 %17, i1 false)
  %21 = getelementptr i8, ptr %19, i64 4
  %.val3234 = load i32, ptr %21, align 4
  %22 = icmp sgt i32 %.val3234, 0
  br i1 %22, label %.lr.ph, label %.critedge2

.lr.ph:                                           ; preds = %18
  %23 = getelementptr i8, ptr %19, i64 8
  br label %24

24:                                               ; preds = %.lr.ph, %24
  %indvars.iv = phi i64 [ 0, %.lr.ph ], [ %indvars.iv.next, %24 ]
  %.val33 = load ptr, ptr %23, align 8
  %25 = getelementptr inbounds nuw i32, ptr %.val33, i64 %indvars.iv
  %26 = load i32, ptr %25, align 4
  %27 = trunc i32 %26 to i8
  %28 = and i8 %27, 1
  %29 = or disjoint i8 %28, 48
  %30 = ashr i32 %26, 1
  %31 = sext i32 %30 to i64
  %32 = getelementptr inbounds i8, ptr %20, i64 %31
  store i8 %29, ptr %32, align 1
  %indvars.iv.next = add nuw nsw i64 %indvars.iv, 1
  %.val32 = load i32, ptr %21, align 4
  %33 = sext i32 %.val32 to i64
  %34 = icmp slt i64 %indvars.iv.next, %33
  br i1 %34, label %24, label %.critedge2, !llvm.loop !15

.critedge2:                                       ; preds = %24, %18
  %35 = getelementptr inbounds i8, ptr %20, i64 %17
  store i8 32, ptr %35, align 1
  %36 = getelementptr i8, ptr %35, i64 1
  store i8 48, ptr %36, align 1
  %37 = getelementptr i8, ptr %35, i64 2
  store i8 10, ptr %37, align 1
  %38 = getelementptr i8, ptr %35, i64 3
  store i8 0, ptr %38, align 1
  %39 = load i32, ptr %6, align 4
  %40 = load i32, ptr %4, align 8
  %41 = icmp eq i32 %39, %40
  br i1 %41, label %42, label %.Vec_PtrGrow.exit11_crit_edge.i

.Vec_PtrGrow.exit11_crit_edge.i:                  ; preds = %.critedge2
  %.pre.i = load ptr, ptr %12, align 8
  br label %Vec_PtrPush.exit

42:                                               ; preds = %.critedge2
  %43 = icmp slt i32 %39, 16
  br i1 %43, label %44, label %51

44:                                               ; preds = %42
  %45 = load ptr, ptr %12, align 8
  %.not9.i.i = icmp eq ptr %45, null
  br i1 %.not9.i.i, label %48, label %46

46:                                               ; preds = %44
  %47 = tail call dereferenceable_or_null(128) ptr @realloc(ptr noundef nonnull %45, i64 noundef 128) #18
  br label %Vec_PtrGrow.exit.i

48:                                               ; preds = %44
  %49 = tail call noalias dereferenceable_or_null(128) ptr @malloc(i64 noundef 128) #17
  br label %Vec_PtrGrow.exit.i

Vec_PtrGrow.exit.i:                               ; preds = %48, %46
  %50 = phi ptr [ %47, %46 ], [ %49, %48 ]
  store ptr %50, ptr %12, align 8
  store i32 16, ptr %4, align 8
  br label %Vec_PtrPush.exit

51:                                               ; preds = %42
  %52 = shl nuw nsw i32 %39, 1
  %53 = load ptr, ptr %12, align 8
  %.not9.i10.i = icmp eq ptr %53, null
  %54 = zext nneg i32 %52 to i64
  %55 = shl nuw nsw i64 %54, 3
  br i1 %.not9.i10.i, label %58, label %56

56:                                               ; preds = %51
  %57 = tail call ptr @realloc(ptr noundef nonnull %53, i64 noundef %55) #18
  br label %60

58:                                               ; preds = %51
  %59 = tail call noalias ptr @malloc(i64 noundef %55) #17
  br label %60

60:                                               ; preds = %58, %56
  %61 = phi ptr [ %57, %56 ], [ %59, %58 ]
  store ptr %61, ptr %12, align 8
  store i32 %52, ptr %4, align 8
  br label %Vec_PtrPush.exit

Vec_PtrPush.exit:                                 ; preds = %.Vec_PtrGrow.exit11_crit_edge.i, %Vec_PtrGrow.exit.i, %60
  %62 = phi ptr [ %.pre.i, %.Vec_PtrGrow.exit11_crit_edge.i ], [ %61, %60 ], [ %50, %Vec_PtrGrow.exit.i ]
  %63 = add nsw i32 %39, 1
  store i32 %63, ptr %6, align 4
  %64 = sext i32 %39 to i64
  %65 = getelementptr inbounds ptr, ptr %62, i64 %64
  store ptr %20, ptr %65, align 8
  %indvars.iv.next41 = add nuw nsw i64 %indvars.iv40, 1
  %.val = load i32, ptr %3, align 4
  %66 = sext i32 %.val to i64
  %67 = icmp slt i64 %indvars.iv.next41, %66
  br i1 %67, label %18, label %.critedge, !llvm.loop !16

.critedge:                                        ; preds = %Vec_PtrPush.exit, %Vec_PtrAlloc.exit
  ret ptr %4
}